target datalayout = "e-m:e-p270:32:32-p271:32:32-p272:64:64-i64:64-i128:128-f80:128-n8:16:32:64-S128"
target triple = "x86_64-pc-linux-gnu"

%struct.FormData_pg_amop = type { i32, i32, i32, i32, i16, i8, i32, i32, i32 }
%struct.HeapTupleData = type { i32, %struct.ItemPointerData, i32, ptr }
%struct.ItemPointerData = type { %struct.BlockIdData, i16 }
%struct.BlockIdData = type { i16, i16 }
%struct.HeapTupleHeaderData = type { %union.anon, %struct.ItemPointerData, i16, i16, i8, [0 x i8] }
%union.anon = type { %struct.HeapTupleFields }
%struct.HeapTupleFields = type { i32, i32, %union.anon.0 }
%union.anon.0 = type { i32 }
%struct.catclist = type { i32, i32, %struct.dlist_node, [4 x i64], i32, i8, i8, i16, i32, ptr, [0 x ptr] }
%struct.dlist_node = type { ptr, ptr }
%struct.catctup = type { i32, i32, [4 x i64], %struct.dlist_node, i32, i8, i8, %struct.HeapTupleData, ptr, ptr }

; Function Attrs: inlinehint nounwind uwtable
define internal i64 @Int16GetDatum(i16 noundef signext %0) #2 {
  %2 = alloca i16, align 2
  store i16 %0, ptr %2, align 2
  %3 = load i16, ptr %2, align 2
  %4 = sext i16 %3 to i64
  ret i64 %4
}

; Function Attrs: nounwind uwtable
define dso_local i32 @get_opfamily_member(i32 noundef %0, i32 noundef %1, i32 noundef %2, i16 noundef signext %3) #0 {
  %5 = alloca i32, align 4
  %6 = alloca i32, align 4
  %7 = alloca i32, align 4
  %8 = alloca i32, align 4
  %9 = alloca i16, align 2
  %10 = alloca ptr, align 8
  %11 = alloca ptr, align 8
  %12 = alloca i32, align 4
  %13 = alloca i32, align 4
  store i32 %0, ptr %6, align 4
  store i32 %1, ptr %7, align 4
  store i32 %2, ptr %8, align 4
  store i16 %3, ptr %9, align 2
  call void @llvm.lifetime.start.p0(i64 8, ptr %10) #7
  call void @llvm.lifetime.start.p0(i64 8, ptr %11) #7
  call void @llvm.lifetime.start.p0(i64 4, ptr %12) #7
  %14 = load i32, ptr %6, align 4
  %15 = call i64 @ObjectIdGetDatum(i32 noundef %14)
  %16 = load i32, ptr %7, align 4
  %17 = call i64 @ObjectIdGetDatum(i32 noundef %16)
  %18 = load i32, ptr %8, align 4
  %19 = call i64 @ObjectIdGetDatum(i32 noundef %18)
  %20 = load i16, ptr %9, align 2
  %21 = call i64 @Int16GetDatum(i16 noundef signext %20)
  %22 = call ptr @SearchSysCache4(i32 noundef 4, i64 noundef %15, i64 noundef %17, i64 noundef %19, i64 noundef %21)
  store ptr %22, ptr %10, align 8
  %23 = load ptr, ptr %10, align 8
  %24 = icmp ne ptr %23, null
  br i1 %24, label %26, label %25

25:                                               ; preds = %4
  store i32 0, ptr %5, align 4
  store i32 1, ptr %13, align 4
  br label %34

26:                                               ; preds = %4
  %27 = load ptr, ptr %10, align 8
  %28 = call ptr @GETSTRUCT(ptr noundef %27)
  store ptr %28, ptr %11, align 8
  %29 = load ptr, ptr %11, align 8
  %30 = getelementptr inbounds nuw %struct.FormData_pg_amop, ptr %29, i32 0, i32 6
  %31 = load i32, ptr %30, align 4
  store i32 %31, ptr %12, align 4
  %32 = load ptr, ptr %10, align 8
  call void @ReleaseSysCache(ptr noundef %32)
  %33 = load i32, ptr %12, align 4
  store i32 %33, ptr %5, align 4
  store i32 1, ptr %13, align 4
  br label %34

34:                                               ; preds = %26, %25
  call void @llvm.lifetime.end.p0(i64 4, ptr %12) #7
  call void @llvm.lifetime.end.p0(i64 8, ptr %11) #7
  call void @llvm.lifetime.end.p0(i64 8, ptr %10) #7
  %35 = load i32, ptr %5, align 4
  ret i32 %35
}

; Function Attrs: inlinehint nounwind uwtable
define internal ptr @GETSTRUCT(ptr noundef %0) #2 {
  %2 = alloca ptr, align 8
  store ptr %0, ptr %2, align 8
  %3 = load ptr, ptr %2, align 8
  %4 = getelementptr inbounds nuw %struct.HeapTupleData, ptr %3, i32 0, i32 3
  %5 = load ptr, ptr %4, align 8
  %6 = load ptr, ptr %2, align 8
  %7 = getelementptr inbounds nuw %struct.HeapTupleData, ptr %6, i32 0, i32 3
  %8 = load ptr, ptr %7, align 8
  %9 = getelementptr inbounds nuw %struct.HeapTupleHeaderData, ptr %8, i32 0, i32 4
  %10 = load i8, ptr %9, align 2
  %11 = zext i8 %10 to i32
  %12 = sext i32 %11 to i64
  %13 = getelementptr inbounds i8, ptr %5, i64 %12
  ret ptr %13
}

; Function Attrs: inlinehint nounwind uwtable
define internal i64 @ObjectIdGetDatum(i32 noundef %0) #2 {
  %2 = alloca i32, align 4
  store i32 %0, ptr %2, align 4
  %3 = load i32, ptr %2, align 4
  %4 = zext i32 %3 to i64
  ret i64 %4
}

; Function Attrs: nounwind uwtable
define dso_local i32 @get_ordering_op_for_equality_op(i32 noundef %0, i1 noundef zeroext %1) #0 {
  %3 = alloca i32, align 4
  %4 = alloca i8, align 1
  %5 = alloca i32, align 4
  %6 = alloca ptr, align 8
  %7 = alloca i32, align 4
  %8 = alloca ptr, align 8
  %9 = alloca ptr, align 8
  %10 = alloca i32, align 4
  %11 = alloca i32, align 4
  store i32 %0, ptr %3, align 4
  %12 = zext i1 %1 to i8
  store i8 %12, ptr %4, align 1
  call void @llvm.lifetime.start.p0(i64 4, ptr %5) #7
  store i32 0, ptr %5, align 4
  call void @llvm.lifetime.start.p0(i64 8, ptr %6) #7
  call void @llvm.lifetime.start.p0(i64 4, ptr %7) #7
  %13 = load i32, ptr %3, align 4
  %14 = call i64 @ObjectIdGetDatum(i32 noundef %13)
  %15 = call ptr @SearchSysCacheList(i32 noundef 3, i32 noundef 1, i64 noundef %14, i64 noundef 0, i64 noundef 0)
  store ptr %15, ptr %6, align 8
  store i32 0, ptr %7, align 4
  br label %16

16:                                               ; preds = %73, %2
  %17 = load i32, ptr %7, align 4
  %18 = load ptr, ptr %6, align 8
  %19 = getelementptr inbounds nuw %struct.catclist, ptr %18, i32 0, i32 8
  %20 = load i32, ptr %19, align 8
  %21 = icmp slt i32 %17, %20
  br i1 %21, label %22, label %76

22:                                               ; preds = %16
  call void @llvm.lifetime.start.p0(i64 8, ptr %8) #7
  %23 = load ptr, ptr %6, align 8
  %24 = getelementptr inbounds nuw %struct.catclist, ptr %23, i32 0, i32 10
  %25 = load i32, ptr %7, align 4
  %26 = sext i32 %25 to i64
  %27 = getelementptr inbounds [0 x ptr], ptr %24, i64 0, i64 %26
  %28 = load ptr, ptr %27, align 8
  %29 = getelementptr inbounds nuw %struct.catctup, ptr %28, i32 0, i32 7
  store ptr %29, ptr %8, align 8
  call void @llvm.lifetime.start.p0(i64 8, ptr %9) #7
  %30 = load ptr, ptr %8, align 8
  %31 = call ptr @GETSTRUCT(ptr noundef %30)
  store ptr %31, ptr %9, align 8
  %32 = load ptr, ptr %9, align 8
  %33 = getelementptr inbounds nuw %struct.FormData_pg_amop, ptr %32, i32 0, i32 7
  %34 = load i32, ptr %33, align 4
  %35 = icmp ne i32 %34, 403
  br i1 %35, label %36, label %37

36:                                               ; preds = %22
  store i32 4, ptr %10, align 4
  br label %70

37:                                               ; preds = %22
  %38 = load ptr, ptr %9, align 8
  %39 = getelementptr inbounds nuw %struct.FormData_pg_amop, ptr %38, i32 0, i32 4
  %40 = load i16, ptr %39, align 4
  %41 = sext i16 %40 to i32
  %42 = icmp eq i32 %41, 3
  br i1 %42, label %43, label %69

43:                                               ; preds = %37
  call void @llvm.lifetime.start.p0(i64 4, ptr %11) #7
  %44 = load i8, ptr %4, align 1, !range !4, !noundef !5
  %45 = trunc i8 %44 to i1
  br i1 %45, label %46, label %50

46:                                               ; preds = %43
  %47 = load ptr, ptr %9, align 8
  %48 = getelementptr inbounds nuw %struct.FormData_pg_amop, ptr %47, i32 0, i32 2
  %49 = load i32, ptr %48, align 4
  br label %54

50:                                               ; preds = %43
  %51 = load ptr, ptr %9, align 8
  %52 = getelementptr inbounds nuw %struct.FormData_pg_amop, ptr %51, i32 0, i32 3
  %53 = load i32, ptr %52, align 4
  br label %54

54:                                               ; preds = %50, %46
  %55 = phi i32 [ %49, %46 ], [ %53, %50 ]
  store i32 %55, ptr %11, align 4
  %56 = load ptr, ptr %9, align 8
  %57 = getelementptr inbounds nuw %struct.FormData_pg_amop, ptr %56, i32 0, i32 1
  %58 = load i32, ptr %57, align 4
  %59 = load i32, ptr %11, align 4
  %60 = load i32, ptr %11, align 4
  %61 = call i32 @get_opfamily_member(i32 noundef %58, i32 noundef %59, i32 noundef %60, i16 noundef signext 1)
  store i32 %61, ptr %5, align 4
  %62 = load i32, ptr %5, align 4
  %63 = icmp ne i32 %62, 0
  br i1 %63, label %64, label %65

64:                                               ; preds = %54
  store i32 2, ptr %10, align 4
  br label %66

65:                                               ; preds = %54
  store i32 0, ptr %10, align 4
  br label %66

66:                                               ; preds = %65, %64
  call void @llvm.lifetime.end.p0(i64 4, ptr %11) #7
  %67 = load i32, ptr %10, align 4
  switch i32 %67, label %70 [
    i32 0, label %68
  ]

68:                                               ; preds = %66
  br label %69

69:                                               ; preds = %68, %37
  store i32 0, ptr %10, align 4
  br label %70

70:                                               ; preds = %69, %66, %36
  call void @llvm.lifetime.end.p0(i64 8, ptr %9) #7
  call void @llvm.lifetime.end.p0(i64 8, ptr %8) #7
  %71 = load i32, ptr %10, align 4
  switch i32 %71, label %79 [
    i32 0, label %72
    i32 4, label %73
    i32 2, label %76
  ]

72:                                               ; preds = %70
  br label %73

73:                                               ; preds = %72, %70
  %74 = load i32, ptr %7, align 4
  %75 = add i32 %74, 1
  store i32 %75, ptr %7, align 4
  br label %16, !llvm.loop !8

76:                                               ; preds = %70, %16
  %77 = load ptr, ptr %6, align 8
  call void @ReleaseCatCacheList(ptr noundef %77)
  %78 = load i32, ptr %5, align 4
  store i32 1, ptr %10, align 4
  call void @llvm.lifetime.end.p0(i64 4, ptr %7) #7
  call void @llvm.lifetime.end.p0(i64 8, ptr %6) #7
  call void @llvm.lifetime.end.p0(i64 4, ptr %5) #7
  ret i32 %78

79:                                               ; preds = %70
  unreachable
}