; Function Attrs: nounwind uwtable
define dso_local noundef i32 @get_ordering_op_for_equality_op(i32 noundef %0, i1 noundef zeroext %1) local_unnamed_addr #0 {
  %3 = zext i32 %0 to i64
  %4 = tail call ptr @SearchSysCacheList(i32 noundef 3, i32 noundef 1, i64 noundef %3, i64 noundef 0, i64 noundef 0) #8
  %5 = getelementptr inbounds nuw i8, ptr %4, i64 64
  %6 = load i32, ptr %5, align 8
  %7 = icmp sgt i32 %6, 0
  br i1 %7, label %.lr.ph, label %get_opfamily_member.exit._crit_edge

.lr.ph:                                           ; preds = %2
  %8 = getelementptr inbounds nuw i8, ptr %4, i64 80
  %.in.v = select i1 %1, i64 8, i64 12
  br label %9

9:                                                ; preds = %.lr.ph, %get_opfamily_member.exit.thread
  %indvars.iv = phi i64 [ 0, %.lr.ph ], [ %indvars.iv.next, %get_opfamily_member.exit.thread ]
  %10 = getelementptr inbounds nuw [0 x ptr], ptr %8, i64 0, i64 %indvars.iv
  %11 = load ptr, ptr %10, align 8
  %12 = getelementptr i8, ptr %11, i64 80
  %.val = load ptr, ptr %12, align 8
  %13 = getelementptr inbounds nuw i8, ptr %.val, i64 22
  %14 = load i8, ptr %13, align 2
  %15 = zext i8 %14 to i64
  %16 = getelementptr inbounds nuw i8, ptr %.val, i64 %15
  %17 = getelementptr inbounds nuw i8, ptr %16, i64 24
  %18 = load i32, ptr %17, align 4
  %.not = icmp eq i32 %18, 403
  br i1 %.not, label %19, label %get_opfamily_member.exit.thread

19:                                               ; preds = %9
  %20 = getelementptr inbounds nuw i8, ptr %16, i64 16
  %21 = load i16, ptr %20, align 4
  %22 = icmp eq i16 %21, 3
  br i1 %22, label %23, label %get_opfamily_member.exit.thread

23:                                               ; preds = %19
  %.in = getelementptr inbounds nuw i8, ptr %16, i64 %.in.v
  %24 = load i32, ptr %.in, align 4
  %25 = getelementptr inbounds nuw i8, ptr %16, i64 4
  %26 = load i32, ptr %25, align 4
  %27 = zext i32 %26 to i64
  %28 = zext i32 %24 to i64
  %29 = tail call ptr @SearchSysCache4(i32 noundef 4, i64 noundef %27, i64 noundef %28, i64 noundef %28, i64 noundef 1) #8
  %.not.i = icmp eq ptr %29, null
  br i1 %.not.i, label %get_opfamily_member.exit.thread, label %get_opfamily_member.exit

get_opfamily_member.exit:                         ; preds = %23
  %30 = getelementptr i8, ptr %29, i64 16
  %.val.i = load ptr, ptr %30, align 8
  %31 = getelementptr inbounds nuw i8, ptr %.val.i, i64 22
  %32 = load i8, ptr %31, align 2
  %33 = zext i8 %32 to i64
  %34 = getelementptr inbounds nuw i8, ptr %.val.i, i64 %33
  %35 = getelementptr inbounds nuw i8, ptr %34, i64 20
  %36 = load i32, ptr %35, align 4
  %.fr = freeze i32 %36
  tail call void @ReleaseSysCache(ptr noundef nonnull %29) #8
  %.not22 = icmp eq i32 %.fr, 0
  br i1 %.not22, label %get_opfamily_member.exit.thread, label %get_opfamily_member.exit._crit_edge

get_opfamily_member.exit.thread:                  ; preds = %get_opfamily_member.exit, %23, %9, %19
  %indvars.iv.next = add nuw nsw i64 %indvars.iv, 1
  %37 = load i32, ptr %5, align 8
  %38 = sext i32 %37 to i64
  %39 = icmp slt i64 %indvars.iv.next, %38
  br i1 %39, label %9, label %get_opfamily_member.exit._crit_edge, !llvm.loop !6

get_opfamily_member.exit._crit_edge:              ; preds = %get_opfamily_member.exit.thread, %get_opfamily_member.exit, %2
  %.1 = phi i32 [ 0, %2 ], [ %.fr, %get_opfamily_member.exit ], [ 0, %get_opfamily_member.exit.thread ]
  tail call void @ReleaseCatCacheList(ptr noundef nonnull %4) #8
  ret i32 %.1
}